target datalayout = "e-m:e-p270:32:32-p271:32:32-p272:64:64-i64:64-i128:128-f80:128-n8:16:32:64-S128"
target triple = "x86_64-pc-linux-gnu"

%struct.DdManager = type { %struct.DdNode, ptr, ptr, ptr, ptr, ptr, ptr, ptr, i32, i32, double, double, double, i32, i32, i32, i32, i32, i32, ptr, ptr, %struct.DdSubtable, i32, i32, i32, i32, i32, i32, i32, double, i32, i32, i32, ptr, i64, double, i32, ptr, ptr, ptr, ptr, ptr, ptr, ptr, i32, ptr, ptr, ptr, ptr, ptr, ptr, i32, i32, i32, double, i32, i32, i32, i32, double, double, i32, i32, i32, i32, i32, i32, i32, i32, i32, ptr, ptr, i32, i32, i32, i32, i32, i32, ptr, ptr, ptr, ptr, ptr, ptr, ptr, ptr, i32, i64, i64, i64, i32, i64, i64, double, double, double, double, double, double, i32, ptr, ptr, i64 }
%struct.DdNode = type { i32, i32, ptr, %union.anon, i64 }
%union.anon = type { %struct.DdChildren }
%struct.DdChildren = type { ptr, ptr }
%struct.DdSubtable = type { ptr, i32, i32, i32, i32, i32, i32, i32, i32, i32, i32, i32 }
%struct.timespec = type { i64, i64 }

; Function Attrs: inlinehint nounwind uwtable
define internal i64 @Abc_Clock() #5 {
  %1 = alloca i64, align 8
  %2 = alloca %struct.timespec, align 8
  %3 = alloca i32, align 4
  %4 = alloca i64, align 8
  call void @llvm.lifetime.start.p0(i64 16, ptr %2) #6
  %5 = call i32 @clock_gettime(i32 noundef 1, ptr noundef %2) #6
  %6 = icmp slt i32 %5, 0
  br i1 %6, label %7, label %8

7:                                                ; preds = %0
  store i64 -1, ptr %1, align 8
  store i32 1, ptr %3, align 4
  br label %19

8:                                                ; preds = %0
  call void @llvm.lifetime.start.p0(i64 8, ptr %4) #6
  %9 = getelementptr inbounds nuw %struct.timespec, ptr %2, i32 0, i32 0
  %10 = load i64, ptr %9, align 8, !tbaa !71
  %11 = mul nsw i64 %10, 1000000
  store i64 %11, ptr %4, align 8, !tbaa !43
  %12 = getelementptr inbounds nuw %struct.timespec, ptr %2, i32 0, i32 1
  %13 = load i64, ptr %12, align 8, !tbaa !73
  %14 = mul nsw i64 %13, 1000000
  %15 = sdiv i64 %14, 1000000000
  %16 = load i64, ptr %4, align 8, !tbaa !43
  %17 = add nsw i64 %16, %15
  store i64 %17, ptr %4, align 8, !tbaa !43
  %18 = load i64, ptr %4, align 8, !tbaa !43
  store i64 %18, ptr %1, align 8
  store i32 1, ptr %3, align 4
  call void @llvm.lifetime.end.p0(i64 8, ptr %4) #6
  br label %19

19:                                               ; preds = %8, %7
  call void @llvm.lifetime.end.p0(i64 16, ptr %2) #6
  %20 = load i64, ptr %1, align 8
  ret i64 %20
}

; Function Attrs: nounwind uwtable
define internal ptr @cuddBddVarMapRecur(ptr noundef %0, ptr noundef %1) #0 {
  %3 = alloca ptr, align 8
  %4 = alloca ptr, align 8
  %5 = alloca ptr, align 8
  %6 = alloca ptr, align 8
  %7 = alloca ptr, align 8
  %8 = alloca ptr, align 8
  %9 = alloca ptr, align 8
  %10 = alloca i32, align 4
  %11 = alloca i32, align 4
  store ptr %0, ptr %4, align 8, !tbaa !3
  store ptr %1, ptr %5, align 8, !tbaa !8
  call void @llvm.lifetime.start.p0(i64 8, ptr %6) #6
  call void @llvm.lifetime.start.p0(i64 8, ptr %7) #6
  call void @llvm.lifetime.start.p0(i64 8, ptr %8) #6
  call void @llvm.lifetime.start.p0(i64 8, ptr %9) #6
  call void @llvm.lifetime.start.p0(i64 4, ptr %10) #6
  %12 = load ptr, ptr %5, align 8, !tbaa !8
  %13 = ptrtoint ptr %12 to i64
  %14 = and i64 %13, -2
  %15 = inttoptr i64 %14 to ptr
  store ptr %15, ptr %6, align 8, !tbaa !8
  %16 = load ptr, ptr %6, align 8, !tbaa !8
  %17 = getelementptr inbounds nuw %struct.DdNode, ptr %16, i32 0, i32 0
  %18 = load i32, ptr %17, align 8, !tbaa !33
  %19 = icmp eq i32 %18, 2147483647
  br i1 %19, label %20, label %22

20:                                               ; preds = %2
  %21 = load ptr, ptr %5, align 8, !tbaa !8
  store ptr %21, ptr %3, align 8
  store i32 1, ptr %11, align 4
  br label %155

22:                                               ; preds = %2
  %23 = load ptr, ptr %6, align 8, !tbaa !8
  %24 = getelementptr inbounds nuw %struct.DdNode, ptr %23, i32 0, i32 1
  %25 = load i32, ptr %24, align 4, !tbaa !35
  %26 = icmp ne i32 %25, 1
  br i1 %26, label %27, label %42

27:                                               ; preds = %22
  %28 = load ptr, ptr %4, align 8, !tbaa !3
  %29 = load ptr, ptr %6, align 8, !tbaa !8
  %30 = call ptr @cuddCacheLookup1(ptr noundef %28, ptr noundef @Cudd_bddVarMap, ptr noundef %29)
  store ptr %30, ptr %9, align 8, !tbaa !8
  %31 = icmp ne ptr %30, null
  br i1 %31, label %32, label %42

32:                                               ; preds = %27
  %33 = load ptr, ptr %9, align 8, !tbaa !8
  %34 = ptrtoint ptr %33 to i64
  %35 = load ptr, ptr %6, align 8, !tbaa !8
  %36 = load ptr, ptr %5, align 8, !tbaa !8
  %37 = icmp ne ptr %35, %36
  %38 = zext i1 %37 to i32
  %39 = sext i32 %38 to i64
  %40 = xor i64 %34, %39
  %41 = inttoptr i64 %40 to ptr
  store ptr %41, ptr %3, align 8
  store i32 1, ptr %11, align 4
  br label %155

42:                                               ; preds = %27, %22
  %43 = load ptr, ptr %4, align 8, !tbaa !3
  %44 = getelementptr inbounds nuw %struct.DdManager, ptr %43, i32 0, i32 102
  %45 = load i64, ptr %44, align 8, !tbaa !51
  %46 = icmp ne i64 %45, 0
  br i1 %46, label %47, label %54

47:                                               ; preds = %42
  %48 = call i64 @Abc_Clock()
  %49 = load ptr, ptr %4, align 8, !tbaa !3
  %50 = getelementptr inbounds nuw %struct.DdManager, ptr %49, i32 0, i32 102
  %51 = load i64, ptr %50, align 8, !tbaa !51
  %52 = icmp sgt i64 %48, %51
  br i1 %52, label %53, label %54

53:                                               ; preds = %47
  store ptr null, ptr %3, align 8
  store i32 1, ptr %11, align 4
  br label %155

54:                                               ; preds = %47, %42
  %55 = load ptr, ptr %4, align 8, !tbaa !3
  %56 = load ptr, ptr %6, align 8, !tbaa !8
  %57 = getelementptr inbounds nuw %struct.DdNode, ptr %56, i32 0, i32 3
  %58 = getelementptr inbounds nuw %struct.DdChildren, ptr %57, i32 0, i32 0
  %59 = load ptr, ptr %58, align 8, !tbaa !34
  %60 = call ptr @cuddBddVarMapRecur(ptr noundef %55, ptr noundef %59)
  store ptr %60, ptr %7, align 8, !tbaa !8
  %61 = load ptr, ptr %7, align 8, !tbaa !8
  %62 = icmp eq ptr %61, null
  br i1 %62, label %63, label %64

63:                                               ; preds = %54
  store ptr null, ptr %3, align 8
  store i32 1, ptr %11, align 4
  br label %155

64:                                               ; preds = %54
  %65 = load ptr, ptr %7, align 8, !tbaa !8
  %66 = ptrtoint ptr %65 to i64
  %67 = and i64 %66, -2
  %68 = inttoptr i64 %67 to ptr
  %69 = getelementptr inbounds nuw %struct.DdNode, ptr %68, i32 0, i32 1
  %70 = load i32, ptr %69, align 4, !tbaa !35
  %71 = add i32 %70, 1
  store i32 %71, ptr %69, align 4, !tbaa !35
  %72 = load ptr, ptr %4, align 8, !tbaa !3
  %73 = load ptr, ptr %6, align 8, !tbaa !8
  %74 = getelementptr inbounds nuw %struct.DdNode, ptr %73, i32 0, i32 3
  %75 = getelementptr inbounds nuw %struct.DdChildren, ptr %74, i32 0, i32 1
  %76 = load ptr, ptr %75, align 8, !tbaa !34
  %77 = call ptr @cuddBddVarMapRecur(ptr noundef %72, ptr noundef %76)
  store ptr %77, ptr %8, align 8, !tbaa !8
  %78 = load ptr, ptr %8, align 8, !tbaa !8
  %79 = icmp eq ptr %78, null
  br i1 %79, label %80, label %83

80:                                               ; preds = %64
  %81 = load ptr, ptr %4, align 8, !tbaa !3
  %82 = load ptr, ptr %7, align 8, !tbaa !8
  call void @Cudd_IterDerefBdd(ptr noundef %81, ptr noundef %82)
  store ptr null, ptr %3, align 8
  store i32 1, ptr %11, align 4
  br label %155

83:                                               ; preds = %64
  %84 = load ptr, ptr %8, align 8, !tbaa !8
  %85 = ptrtoint ptr %84 to i64
  %86 = and i64 %85, -2
  %87 = inttoptr i64 %86 to ptr
  %88 = getelementptr inbounds nuw %struct.DdNode, ptr %87, i32 0, i32 1
  %89 = load i32, ptr %88, align 4, !tbaa !35
  %90 = add i32 %89, 1
  store i32 %90, ptr %88, align 4, !tbaa !35
  %91 = load ptr, ptr %4, align 8, !tbaa !3
  %92 = getelementptr inbounds nuw %struct.DdManager, ptr %91, i32 0, i32 42
  %93 = load ptr, ptr %92, align 8, !tbaa !49
  %94 = load ptr, ptr %6, align 8, !tbaa !8
  %95 = getelementptr inbounds nuw %struct.DdNode, ptr %94, i32 0, i32 0
  %96 = load i32, ptr %95, align 8, !tbaa !33
  %97 = zext i32 %96 to i64
  %98 = getelementptr inbounds nuw i32, ptr %93, i64 %97
  %99 = load i32, ptr %98, align 4, !tbaa !10
  store i32 %99, ptr %10, align 4, !tbaa !10
  %100 = load ptr, ptr %4, align 8, !tbaa !3
  %101 = load ptr, ptr %4, align 8, !tbaa !3
  %102 = getelementptr inbounds nuw %struct.DdManager, ptr %101, i32 0, i32 41
  %103 = load ptr, ptr %102, align 8, !tbaa !28
  %104 = load i32, ptr %10, align 4, !tbaa !10
  %105 = sext i32 %104 to i64
  %106 = getelementptr inbounds ptr, ptr %103, i64 %105
  %107 = load ptr, ptr %106, align 8, !tbaa !8
  %108 = load ptr, ptr %7, align 8, !tbaa !8
  %109 = load ptr, ptr %8, align 8, !tbaa !8
  %110 = call ptr @cuddBddIteRecur(ptr noundef %100, ptr noundef %107, ptr noundef %108, ptr noundef %109)
  store ptr %110, ptr %9, align 8, !tbaa !8
  %111 = load ptr, ptr %9, align 8, !tbaa !8
  %112 = icmp eq ptr %111, null
  br i1 %112, label %113, label %118

113:                                              ; preds = %83
  %114 = load ptr, ptr %4, align 8, !tbaa !3
  %115 = load ptr, ptr %7, align 8, !tbaa !8
  call void @Cudd_IterDerefBdd(ptr noundef %114, ptr noundef %115)
  %116 = load ptr, ptr %4, align 8, !tbaa !3
  %117 = load ptr, ptr %8, align 8, !tbaa !8
  call void @Cudd_IterDerefBdd(ptr noundef %116, ptr noundef %117)
  store ptr null, ptr %3, align 8
  store i32 1, ptr %11, align 4
  br label %155

118:                                              ; preds = %83
  %119 = load ptr, ptr %9, align 8, !tbaa !8
  %120 = ptrtoint ptr %119 to i64
  %121 = and i64 %120, -2
  %122 = inttoptr i64 %121 to ptr
  %123 = getelementptr inbounds nuw %struct.DdNode, ptr %122, i32 0, i32 1
  %124 = load i32, ptr %123, align 4, !tbaa !35
  %125 = add i32 %124, 1
  store i32 %125, ptr %123, align 4, !tbaa !35
  %126 = load ptr, ptr %4, align 8, !tbaa !3
  %127 = load ptr, ptr %7, align 8, !tbaa !8
  call void @Cudd_IterDerefBdd(ptr noundef %126, ptr noundef %127)
  %128 = load ptr, ptr %4, align 8, !tbaa !3
  %129 = load ptr, ptr %8, align 8, !tbaa !8
  call void @Cudd_IterDerefBdd(ptr noundef %128, ptr noundef %129)
  %130 = load ptr, ptr %6, align 8, !tbaa !8
  %131 = getelementptr inbounds nuw %struct.DdNode, ptr %130, i32 0, i32 1
  %132 = load i32, ptr %131, align 4, !tbaa !35
  %133 = icmp ne i32 %132, 1
  br i1 %133, label %134, label %138

134:                                              ; preds = %118
  %135 = load ptr, ptr %4, align 8, !tbaa !3
  %136 = load ptr, ptr %6, align 8, !tbaa !8
  %137 = load ptr, ptr %9, align 8, !tbaa !8
  call void @cuddCacheInsert1(ptr noundef %135, ptr noundef @Cudd_bddVarMap, ptr noundef %136, ptr noundef %137)
  br label %138

138:                                              ; preds = %134, %118
  %139 = load ptr, ptr %9, align 8, !tbaa !8
  %140 = ptrtoint ptr %139 to i64
  %141 = and i64 %140, -2
  %142 = inttoptr i64 %141 to ptr
  %143 = getelementptr inbounds nuw %struct.DdNode, ptr %142, i32 0, i32 1
  %144 = load i32, ptr %143, align 4, !tbaa !35
  %145 = add i32 %144, -1
  store i32 %145, ptr %143, align 4, !tbaa !35
  %146 = load ptr, ptr %9, align 8, !tbaa !8
  %147 = ptrtoint ptr %146 to i64
  %148 = load ptr, ptr %6, align 8, !tbaa !8
  %149 = load ptr, ptr %5, align 8, !tbaa !8
  %150 = icmp ne ptr %148, %149
  %151 = zext i1 %150 to i32
  %152 = sext i32 %151 to i64
  %153 = xor i64 %147, %152
  %154 = inttoptr i64 %153 to ptr
  store ptr %154, ptr %3, align 8
  store i32 1, ptr %11, align 4
  br label %155

155:                                              ; preds = %138, %113, %80, %63, %53, %32, %20
  call void @llvm.lifetime.end.p0(i64 4, ptr %10) #6
  call void @llvm.lifetime.end.p0(i64 8, ptr %9) #6
  call void @llvm.lifetime.end.p0(i64 8, ptr %8) #6
  call void @llvm.lifetime.end.p0(i64 8, ptr %7) #6
  call void @llvm.lifetime.end.p0(i64 8, ptr %6) #6
  %156 = load ptr, ptr %3, align 8
  ret ptr %156
}