; Function Attrs: nounwind uwtable
define internal fastcc ptr @cuddBddVarMapRecur(ptr noundef %0, ptr noundef %1) unnamed_addr #0 {
  %3 = alloca %struct.timespec, align 8
  %4 = ptrtoint ptr %1 to i64
  %5 = and i64 %4, -2
  %6 = inttoptr i64 %5 to ptr
  %7 = load i32, ptr %6, align 8, !tbaa !30
  %8 = icmp eq i32 %7, 2147483647
  br i1 %8, label %89, label %9

9:                                                ; preds = %2
  %10 = getelementptr inbounds nuw i8, ptr %6, i64 4
  %11 = load i32, ptr %10, align 4, !tbaa !33
  %.not = icmp eq i32 %11, 1
  br i1 %.not, label %20, label %12

12:                                               ; preds = %9
  %13 = tail call ptr @cuddCacheLookup1(ptr noundef %0, ptr noundef nonnull @Cudd_bddVarMap, ptr noundef nonnull %6) #7
  %.not50 = icmp eq ptr %13, null
  br i1 %.not50, label %20, label %14

14:                                               ; preds = %12
  %15 = ptrtoint ptr %13 to i64
  %16 = icmp ne ptr %1, %6
  %17 = zext i1 %16 to i64
  %18 = xor i64 %15, %17
  %19 = inttoptr i64 %18 to ptr
  br label %89

20:                                               ; preds = %12, %9
  %21 = getelementptr inbounds nuw i8, ptr %0, i64 752
  %22 = load i64, ptr %21, align 8, !tbaa !44
  %.not51 = icmp eq i64 %22, 0
  br i1 %.not51, label %35, label %23

23:                                               ; preds = %20
  call void @llvm.lifetime.start.p0(i64 16, ptr nonnull %3) #7
  %24 = call i32 @clock_gettime(i32 noundef 1, ptr noundef nonnull %3) #7
  %25 = icmp slt i32 %24, 0
  br i1 %25, label %Abc_Clock.exit, label %26

26:                                               ; preds = %23
  %27 = load i64, ptr %3, align 8, !tbaa !45
  %28 = mul nsw i64 %27, 1000000
  %29 = getelementptr inbounds nuw i8, ptr %3, i64 8
  %30 = load i64, ptr %29, align 8, !tbaa !47
  %31 = sdiv i64 %30, 1000
  %32 = add nsw i64 %31, %28
  br label %Abc_Clock.exit

Abc_Clock.exit:                                   ; preds = %23, %26
  %.0.i = phi i64 [ %32, %26 ], [ -1, %23 ]
  call void @llvm.lifetime.end.p0(i64 16, ptr nonnull %3) #7
  %33 = load i64, ptr %21, align 8, !tbaa !44
  %34 = icmp sgt i64 %.0.i, %33
  br i1 %34, label %89, label %35

35:                                               ; preds = %Abc_Clock.exit, %20
  %36 = getelementptr inbounds nuw i8, ptr %6, i64 16
  %37 = load ptr, ptr %36, align 8, !tbaa !32
  %38 = call fastcc ptr @cuddBddVarMapRecur(ptr noundef nonnull %0, ptr noundef %37)
  %39 = icmp eq ptr %38, null
  br i1 %39, label %89, label %40

40:                                               ; preds = %35
  %41 = ptrtoint ptr %38 to i64
  %42 = and i64 %41, -2
  %43 = inttoptr i64 %42 to ptr
  %44 = getelementptr inbounds nuw i8, ptr %43, i64 4
  %45 = load i32, ptr %44, align 4, !tbaa !33
  %46 = add i32 %45, 1
  store i32 %46, ptr %44, align 4, !tbaa !33
  %47 = getelementptr inbounds nuw i8, ptr %6, i64 24
  %48 = load ptr, ptr %47, align 8, !tbaa !32
  %49 = call fastcc ptr @cuddBddVarMapRecur(ptr noundef nonnull %0, ptr noundef %48)
  %50 = icmp eq ptr %49, null
  br i1 %50, label %51, label %52

51:                                               ; preds = %40
  call void @Cudd_IterDerefBdd(ptr noundef nonnull %0, ptr noundef nonnull %38) #7
  br label %89

52:                                               ; preds = %40
  %53 = ptrtoint ptr %49 to i64
  %54 = and i64 %53, -2
  %55 = inttoptr i64 %54 to ptr
  %56 = getelementptr inbounds nuw i8, ptr %55, i64 4
  %57 = load i32, ptr %56, align 4, !tbaa !33
  %58 = add i32 %57, 1
  store i32 %58, ptr %56, align 4, !tbaa !33
  %59 = getelementptr inbounds nuw i8, ptr %0, i64 352
  %60 = load ptr, ptr %59, align 8, !tbaa !42
  %61 = load i32, ptr %6, align 8, !tbaa !30
  %62 = zext i32 %61 to i64
  %63 = getelementptr inbounds nuw i32, ptr %60, i64 %62
  %64 = load i32, ptr %63, align 4, !tbaa !31
  %65 = getelementptr inbounds nuw i8, ptr %0, i64 344
  %66 = load ptr, ptr %65, align 8, !tbaa !24
  %67 = sext i32 %64 to i64
  %68 = getelementptr inbounds ptr, ptr %66, i64 %67
  %69 = load ptr, ptr %68, align 8, !tbaa !25
  %70 = call ptr @cuddBddIteRecur(ptr noundef nonnull %0, ptr noundef %69, ptr noundef nonnull %38, ptr noundef nonnull %49) #7
  %71 = icmp eq ptr %70, null
  br i1 %71, label %72, label %73

72:                                               ; preds = %52
  call void @Cudd_IterDerefBdd(ptr noundef nonnull %0, ptr noundef nonnull %38) #7
  call void @Cudd_IterDerefBdd(ptr noundef nonnull %0, ptr noundef nonnull %49) #7
  br label %89

73:                                               ; preds = %52
  %74 = ptrtoint ptr %70 to i64
  %75 = and i64 %74, -2
  %76 = inttoptr i64 %75 to ptr
  %77 = getelementptr inbounds nuw i8, ptr %76, i64 4
  %78 = load i32, ptr %77, align 4, !tbaa !33
  %79 = add i32 %78, 1
  store i32 %79, ptr %77, align 4, !tbaa !33
  call void @Cudd_IterDerefBdd(ptr noundef nonnull %0, ptr noundef nonnull %38) #7
  call void @Cudd_IterDerefBdd(ptr noundef nonnull %0, ptr noundef nonnull %49) #7
  %80 = load i32, ptr %10, align 4, !tbaa !33
  %.not52 = icmp eq i32 %80, 1
  br i1 %.not52, label %82, label %81

81:                                               ; preds = %73
  call void @cuddCacheInsert1(ptr noundef nonnull %0, ptr noundef nonnull @Cudd_bddVarMap, ptr noundef nonnull %6, ptr noundef nonnull %70) #7
  br label %82

82:                                               ; preds = %81, %73
  %83 = load i32, ptr %77, align 4, !tbaa !33
  %84 = add i32 %83, -1
  store i32 %84, ptr %77, align 4, !tbaa !33
  %85 = icmp ne ptr %1, %6
  %86 = zext i1 %85 to i64
  %87 = xor i64 %74, %86
  %88 = inttoptr i64 %87 to ptr
  br label %89

89:                                               ; preds = %35, %Abc_Clock.exit, %2, %82, %72, %51, %14
  %.0 = phi ptr [ %19, %14 ], [ null, %51 ], [ null, %72 ], [ %88, %82 ], [ %1, %2 ], [ null, %Abc_Clock.exit ], [ null, %35 ]
  ret ptr %.0
}